; Function Attrs: null_pointer_is_valid sspstrong uwtable
define i32 @fvalue_to_double(ptr noundef %0, ptr noundef %1) local_unnamed_addr #0 {
  %3 = load ptr, ptr %0, align 8
  %4 = getelementptr inbounds nuw i8, ptr %3, i64 104
  %5 = load ptr, ptr %4, align 8
  %.not = icmp eq ptr %5, null
  br i1 %.not, label %8, label %6

6:                                                ; preds = %2
  %7 = tail call i32 %5(ptr noundef %0, ptr noundef %1)
  br label %8

8:                                                ; preds = %2, %6
  %.0 = phi i32 [ %7, %6 ], [ 3, %2 ]
  ret i32 %.0
}